; ModuleID = '12/1332.cpp'
source_filename = "12/1332.cpp"
target datalayout = "e-m:e-p270:32:32-p271:32:32-p272:64:64-i64:64-f80:128-n8:16:32:64-S128"
target triple = "x86_64-pc-linux-gnu"

%"class.std::ios_base::Init" = type { i8 }
%"class.std::basic_istream" = type { i32 (...)**, i64, %"class.std::basic_ios" }
%"class.std::basic_ios" = type { %"class.std::ios_base", %"class.std::basic_ostream"*, i8, i8, %"class.std::basic_streambuf"*, %"class.std::ctype"*, %"class.std::num_put"*, %"class.std::num_get"* }
%"class.std::ios_base" = type { i32 (...)**, i64, i64, i32, i32, i32, %"struct.std::ios_base::_Callback_list"*, %"struct.std::ios_base::_Words", [8 x %"struct.std::ios_base::_Words"], i32, %"struct.std::ios_base::_Words"*, %"class.std::locale" }
%"struct.std::ios_base::_Callback_list" = type { %"struct.std::ios_base::_Callback_list"*, void (i32, %"class.std::ios_base"*, i32)*, i32, i32 }
%"struct.std::ios_base::_Words" = type { i8*, i64 }
%"class.std::locale" = type { %"class.std::locale::_Impl"* }
%"class.std::locale::_Impl" = type { i32, %"class.std::locale::facet"**, i64, %"class.std::locale::facet"**, i8** }
%"class.std::locale::facet" = type <{ i32 (...)**, i32, [4 x i8] }>
%"class.std::basic_ostream" = type { i32 (...)**, %"class.std::basic_ios" }
%"class.std::basic_streambuf" = type { i32 (...)**, i8*, i8*, i8*, i8*, i8*, i8*, %"class.std::locale" }
%"class.std::ctype" = type <{ %"class.std::locale::facet.base", [4 x i8], %struct.__locale_struct*, i8, [7 x i8], i32*, i32*, i16*, i8, [256 x i8], [256 x i8], i8, [6 x i8] }>
%"class.std::locale::facet.base" = type <{ i32 (...)**, i32 }>
%struct.__locale_struct = type { [13 x %struct.__locale_data*], i16*, i32*, i32*, [13 x i8*] }
%struct.__locale_data = type opaque
%"class.std::num_put" = type { %"class.std::locale::facet.base", [4 x i8] }
%"class.std::num_get" = type { %"class.std::locale::facet.base", [4 x i8] }

@_ZStL8__ioinit = internal global %"class.std::ios_base::Init" zeroinitializer, align 1
@__dso_handle = external hidden global i8
@_ZSt3cin = external dso_local global %"class.std::basic_istream", align 8
@_ZSt4cout = external dso_local global %"class.std::basic_ostream", align 8
@llvm.global_ctors = appending global [1 x { i32, void ()*, i8* }] [{ i32, void ()*, i8* } { i32 65535, void ()* @_GLOBAL__sub_I_1332.cpp, i8* null }]

; Function Attrs: noinline uwtable
define internal void @__cxx_global_var_init() #0 section ".text.startup" {
  call void @_ZNSt8ios_base4InitC1Ev(%"class.std::ios_base::Init"* @_ZStL8__ioinit)
  %1 = call i32 @__cxa_atexit(void (i8*)* bitcast (void (%"class.std::ios_base::Init"*)* @_ZNSt8ios_base4InitD1Ev to void (i8*)*), i8* getelementptr inbounds (%"class.std::ios_base::Init", %"class.std::ios_base::Init"* @_ZStL8__ioinit, i32 0, i32 0), i8* @__dso_handle) #3
  ret void
}

declare dso_local void @_ZNSt8ios_base4InitC1Ev(%"class.std::ios_base::Init"*) unnamed_addr #1

; Function Attrs: nounwind
declare dso_local void @_ZNSt8ios_base4InitD1Ev(%"class.std::ios_base::Init"*) unnamed_addr #2

; Function Attrs: nounwind
declare dso_local i32 @__cxa_atexit(void (i8*)*, i8*, i8*) #3

; Function Attrs: noinline norecurse uwtable
define dso_local i32 @main() #4 {
  %1 = alloca i32, align 4
  %2 = alloca [16 x i32], align 16
  %3 = alloca i32, align 4
  %4 = alloca i32, align 4
  %5 = alloca i32, align 4
  %6 = alloca i32, align 4
  store i32 0, i32* %1, align 4
  br label %7

7:                                                ; preds = %72, %0
  store i32 -1, i32* %3, align 4
  store i32 0, i32* %6, align 4
  br label %8

8:                                                ; preds = %20, %7
  %9 = load i32, i32* %3, align 4
  %10 = add nsw i32 %9, 1
  store i32 %10, i32* %3, align 4
  %11 = load i32, i32* %3, align 4
  %12 = sext i32 %11 to i64
  %13 = getelementptr inbounds [16 x i32], [16 x i32]* %2, i64 0, i64 %12
  %14 = call dereferenceable(280) %"class.std::basic_istream"* @_ZNSirsERi(%"class.std::basic_istream"* @_ZSt3cin, i32* dereferenceable(4) %13)
  %15 = getelementptr inbounds [16 x i32], [16 x i32]* %2, i64 0, i64 0
  %16 = load i32, i32* %15, align 16
  %17 = icmp eq i32 %16, -1
  br i1 %17, label %18, label %19

18:                                               ; preds = %8
  ret i32 0

19:                                               ; preds = %8
  br label %20

20:                                               ; preds = %19
  %21 = load i32, i32* %3, align 4
  %22 = sext i32 %21 to i64
  %23 = getelementptr inbounds [16 x i32], [16 x i32]* %2, i64 0, i64 %22
  %24 = load i32, i32* %23, align 4
  %25 = icmp ne i32 %24, 0
  br i1 %25, label %8, label %26

26:                                               ; preds = %20
  store i32 0, i32* %5, align 4
  br label %27

27:                                               ; preds = %69, %26
  %28 = load i32, i32* %5, align 4
  %29 = load i32, i32* %3, align 4
  %30 = sub nsw i32 %29, 1
  %31 = icmp sle i32 %28, %30
  br i1 %31, label %32, label %72

32:                                               ; preds = %27
  %33 = load i32, i32* %5, align 4
  store i32 %33, i32* %4, align 4
  br label %34

34:                                               ; preds = %65, %32
  %35 = load i32, i32* %4, align 4
  %36 = load i32, i32* %3, align 4
  %37 = sub nsw i32 %36, 1
  %38 = icmp sle i32 %35, %37
  br i1 %38, label %39, label %68

39:                                               ; preds = %34
  %40 = load i32, i32* %5, align 4
  %41 = sext i32 %40 to i64
  %42 = getelementptr inbounds [16 x i32], [16 x i32]* %2, i64 0, i64 %41
  %43 = load i32, i32* %42, align 4
  %44 = load i32, i32* %4, align 4
  %45 = sext i32 %44 to i64
  %46 = getelementptr inbounds [16 x i32], [16 x i32]* %2, i64 0, i64 %45
  %47 = load i32, i32* %46, align 4
  %48 = mul nsw i32 2, %47
  %49 = icmp eq i32 %43, %48
  br i1 %49, label %61, label %50

50:                                               ; preds = %39
  %51 = load i32, i32* %5, align 4
  %52 = sext i32 %51 to i64
  %53 = getelementptr inbounds [16 x i32], [16 x i32]* %2, i64 0, i64 %52
  %54 = load i32, i32* %53, align 4
  %55 = mul nsw i32 %54, 2
  %56 = load i32, i32* %4, align 4
  %57 = sext i32 %56 to i64
  %58 = getelementptr inbounds [16 x i32], [16 x i32]* %2, i64 0, i64 %57
  %59 = load i32, i32* %58, align 4
  %60 = icmp eq i32 %55, %59
  br i1 %60, label %61, label %64

61:                                               ; preds = %50, %39
  %62 = load i32, i32* %6, align 4
  %63 = add nsw i32 %62, 1
  store i32 %63, i32* %6, align 4
  br label %64

64:                                               ; preds = %61, %50
  br label %65

65:                                               ; preds = %64
  %66 = load i32, i32* %4, align 4
  %67 = add nsw i32 %66, 1
  store i32 %67, i32* %4, align 4
  br label %34

68:                                               ; preds = %34
  br label %69

69:                                               ; preds = %68
  %70 = load i32, i32* %5, align 4
  %71 = add nsw i32 %70, 1
  store i32 %71, i32* %5, align 4
  br label %27

72:                                               ; preds = %27
  %73 = load i32, i32* %6, align 4
  %74 = call dereferenceable(272) %"class.std::basic_ostream"* @_ZNSolsEi(%"class.std::basic_ostream"* @_ZSt4cout, i32 %73)
  %75 = call dereferenceable(272) %"class.std::basic_ostream"* @_ZNSolsEPFRSoS_E(%"class.std::basic_ostream"* %74, %"class.std::basic_ostream"* (%"class.std::basic_ostream"*)* @_ZSt4endlIcSt11char_traitsIcEERSt13basic_ostreamIT_T0_ES6_)
  br label %7
}

declare dso_local dereferenceable(280) %"class.std::basic_istream"* @_ZNSirsERi(%"class.std::basic_istream"*, i32* dereferenceable(4)) #1

declare dso_local dereferenceable(272) %"class.std::basic_ostream"* @_ZNSolsEi(%"class.std::basic_ostream"*, i32) #1

declare dso_local dereferenceable(272) %"class.std::basic_ostream"* @_ZNSolsEPFRSoS_E(%"class.std::basic_ostream"*, %"class.std::basic_ostream"* (%"class.std::basic_ostream"*)*) #1

declare dso_local dereferenceable(272) %"class.std::basic_ostream"* @_ZSt4endlIcSt11char_traitsIcEERSt13basic_ostreamIT_T0_ES6_(%"class.std::basic_ostream"* dereferenceable(272)) #1

; Function Attrs: noinline uwtable
define internal void @_GLOBAL__sub_I_1332.cpp() #0 section ".text.startup" {
  call void @__cxx_global_var_init()
  ret void
}


!llvm.module.flags = !{!0}
!llvm.ident = !{!1}

!0 = !{i32 1, !"wchar_size", i32 4}
!1 = !{!"clang version 10.0.0-4ubuntu1 "}
