; ModuleID = 'source-C-CXX/11/1332.cpp'
source_filename = "source-C-CXX/11/1332.cpp"
target datalayout = "e-m:e-p270:32:32-p271:32:32-p272:64:64-i64:64-f80:128-n8:16:32:64-S128"
target triple = "x86_64-pc-linux-gnu"

%"class.std::ios_base::Init" = type { i8 }
%"class.std::basic_istream" = type { i32 (...)**, i64, %"class.std::basic_ios" }
%"class.std::basic_ios" = type { %"class.std::ios_base", %"class.std::basic_ostream"*, i8, i8, %"class.std::basic_streambuf"*, %"class.std::ctype"*, %"class.std::num_put"*, %"class.std::num_get"* }
%"class.std::ios_base" = type { i32 (...)**, i64, i64, i32, i32, i32, %"struct.std::ios_base::_Callback_list"*, %"struct.std::ios_base::_Words", [8 x %"struct.std::ios_base::_Words"], i32, %"struct.std::ios_base::_Words"*, %"class.std::locale" }
%"struct.std::ios_base::_Callback_list" = type { %"struct.std::ios_base::_Callback_list"*, void (i32, %"class.std::ios_base"*, i32)*, i32, i32 }
%"struct.std::ios_base::_Words" = type { i8*, i64 }
%"class.std::locale" = type { %"class.std::locale::_Impl"* }
%"class.std::locale::_Impl" = type { i32, %"class.std::locale::facet"**, i64, %"class.std::locale::facet"**, i8** }
%"class.std::locale::facet" = type <{ i32 (...)**, i32, [4 x i8] }>
%"class.std::basic_ostream" = type { i32 (...)**, %"class.std::basic_ios" }
%"class.std::basic_streambuf" = type { i32 (...)**, i8*, i8*, i8*, i8*, i8*, i8*, %"class.std::locale" }
%"class.std::ctype" = type <{ %"class.std::locale::facet.base", [4 x i8], %struct.__locale_struct*, i8, [7 x i8], i32*, i32*, i16*, i8, [256 x i8], [256 x i8], i8, [6 x i8] }>
%"class.std::locale::facet.base" = type <{ i32 (...)**, i32 }>
%struct.__locale_struct = type { [13 x %struct.__locale_data*], i16*, i32*, i32*, [13 x i8*] }
%struct.__locale_data = type opaque
%"class.std::num_put" = type { %"class.std::locale::facet.base", [4 x i8] }
%"class.std::num_get" = type { %"class.std::locale::facet.base", [4 x i8] }

@_ZStL8__ioinit = internal global %"class.std::ios_base::Init" zeroinitializer, align 1
@__dso_handle = external hidden global i8
@_ZSt3cin = external global %"class.std::basic_istream", align 8
@_ZSt4cout = external global %"class.std::basic_ostream", align 8
@llvm.global_ctors = appending global [1 x { i32, void ()*, i8* }] [{ i32, void ()*, i8* } { i32 65535, void ()* @_GLOBAL__sub_I_1332.cpp, i8* null }]

declare void @_ZNSt8ios_base4InitC1Ev(%"class.std::ios_base::Init"* nonnull align 1 dereferenceable(1)) unnamed_addr #0

; Function Attrs: nounwind
declare void @_ZNSt8ios_base4InitD1Ev(%"class.std::ios_base::Init"* nonnull align 1 dereferenceable(1)) unnamed_addr #1

; Function Attrs: nofree nounwind
declare i32 @__cxa_atexit(void (i8*)*, i8*, i8*) local_unnamed_addr #2

; Function Attrs: mustprogress norecurse sspstrong uwtable
define dso_local i32 @main() local_unnamed_addr #3 {
  %1 = alloca [16 x i32], align 16
  %2 = bitcast [16 x i32]* %1 to i8*
  call void @llvm.lifetime.start.p0i8(i64 64, i8* nonnull %2) #8
  %3 = getelementptr inbounds [16 x i32], [16 x i32]* %1, i64 0, i64 0
  br label %4

4:                                                ; preds = %15, %0
  %5 = phi i64 [ -1, %0 ], [ %16, %15 ]
  %6 = add nsw i64 %5, 1
  %7 = getelementptr inbounds [16 x i32], [16 x i32]* %1, i64 0, i64 %6
  %8 = call nonnull align 8 dereferenceable(16) %"class.std::basic_istream"* @_ZNSirsERi(%"class.std::basic_istream"* nonnull align 8 dereferenceable(16) @_ZSt3cin, i32* nonnull align 4 dereferenceable(4) %7)
  %9 = load i32, i32* %3, align 16, !tbaa !5
  %10 = icmp eq i32 %9, -1
  br i1 %10, label %11, label %12

11:                                               ; preds = %4
  call void @llvm.lifetime.end.p0i8(i64 64, i8* nonnull %2) #8
  ret i32 0

12:                                               ; preds = %4
  %13 = load i32, i32* %7, align 4, !tbaa !5
  %14 = icmp eq i32 %13, 0
  br i1 %14, label %17, label %15

15:                                               ; preds = %12, %130
  %16 = phi i64 [ %6, %12 ], [ -1, %130 ]
  br label %4, !llvm.loop !9

17:                                               ; preds = %12
  %18 = trunc i64 %5 to i32
  %19 = icmp slt i32 %18, 0
  br i1 %19, label %102, label %20

20:                                               ; preds = %17
  %21 = add i64 %5, 1
  %22 = and i64 %21, 4294967295
  br label %23

23:                                               ; preds = %98, %20
  %24 = phi i64 [ 0, %20 ], [ %100, %98 ]
  %25 = phi i32 [ 0, %20 ], [ %99, %98 ]
  %26 = xor i64 %24, -1
  %27 = add nsw i64 %22, %26
  %28 = getelementptr inbounds [16 x i32], [16 x i32]* %1, i64 0, i64 %24
  %29 = load i32, i32* %28, align 4, !tbaa !5
  %30 = shl nsw i32 %29, 1
  %31 = shl nsw i32 %29, 1
  %32 = icmp eq i32 %29, %31
  %33 = icmp eq i32 %30, %29
  %34 = select i1 %32, i1 true, i1 %33
  %35 = zext i1 %34 to i32
  %36 = add nsw i32 %25, %35
  %37 = add nuw nsw i64 %24, 1
  %38 = icmp eq i64 %37, %22
  br i1 %38, label %98, label %39, !llvm.loop !11

39:                                               ; preds = %23
  %40 = icmp ult i64 %27, 8
  br i1 %40, label %82, label %41

41:                                               ; preds = %39
  %42 = and i64 %27, -8
  %43 = add i64 %37, %42
  %44 = insertelement <4 x i32> <i32 poison, i32 0, i32 0, i32 0>, i32 %36, i32 0
  %45 = insertelement <4 x i32> poison, i32 %29, i32 0
  %46 = shufflevector <4 x i32> %45, <4 x i32> poison, <4 x i32> zeroinitializer
  %47 = insertelement <4 x i32> poison, i32 %29, i32 0
  %48 = shufflevector <4 x i32> %47, <4 x i32> poison, <4 x i32> zeroinitializer
  %49 = insertelement <4 x i32> poison, i32 %30, i32 0
  %50 = shufflevector <4 x i32> %49, <4 x i32> poison, <4 x i32> zeroinitializer
  %51 = insertelement <4 x i32> poison, i32 %30, i32 0
  %52 = shufflevector <4 x i32> %51, <4 x i32> poison, <4 x i32> zeroinitializer
  br label %53

53:                                               ; preds = %53, %41
  %54 = phi i64 [ 0, %41 ], [ %76, %53 ]
  %55 = phi <4 x i32> [ %44, %41 ], [ %74, %53 ]
  %56 = phi <4 x i32> [ zeroinitializer, %41 ], [ %75, %53 ]
  %57 = add i64 %37, %54
  %58 = getelementptr inbounds [16 x i32], [16 x i32]* %1, i64 0, i64 %57
  %59 = bitcast i32* %58 to <4 x i32>*
  %60 = load <4 x i32>, <4 x i32>* %59, align 4, !tbaa !5
  %61 = getelementptr inbounds i32, i32* %58, i64 4
  %62 = bitcast i32* %61 to <4 x i32>*
  %63 = load <4 x i32>, <4 x i32>* %62, align 4, !tbaa !5
  %64 = shl nsw <4 x i32> %60, <i32 1, i32 1, i32 1, i32 1>
  %65 = shl nsw <4 x i32> %63, <i32 1, i32 1, i32 1, i32 1>
  %66 = icmp eq <4 x i32> %46, %64
  %67 = icmp eq <4 x i32> %48, %65
  %68 = icmp eq <4 x i32> %50, %60
  %69 = icmp eq <4 x i32> %52, %63
  %70 = select <4 x i1> %66, <4 x i1> <i1 true, i1 true, i1 true, i1 true>, <4 x i1> %68
  %71 = select <4 x i1> %67, <4 x i1> <i1 true, i1 true, i1 true, i1 true>, <4 x i1> %69
  %72 = zext <4 x i1> %70 to <4 x i32>
  %73 = zext <4 x i1> %71 to <4 x i32>
  %74 = add <4 x i32> %55, %72
  %75 = add <4 x i32> %56, %73
  %76 = add nuw i64 %54, 8
  %77 = icmp eq i64 %76, %42
  br i1 %77, label %78, label %53, !llvm.loop !12

78:                                               ; preds = %53
  %79 = add <4 x i32> %75, %74
  %80 = call i32 @llvm.vector.reduce.add.v4i32(<4 x i32> %79)
  %81 = icmp eq i64 %27, %42
  br i1 %81, label %98, label %82

82:                                               ; preds = %39, %78
  %83 = phi i64 [ %37, %39 ], [ %43, %78 ]
  %84 = phi i32 [ %36, %39 ], [ %80, %78 ]
  br label %85

85:                                               ; preds = %82, %85
  %86 = phi i64 [ %96, %85 ], [ %83, %82 ]
  %87 = phi i32 [ %95, %85 ], [ %84, %82 ]
  %88 = getelementptr inbounds [16 x i32], [16 x i32]* %1, i64 0, i64 %86
  %89 = load i32, i32* %88, align 4, !tbaa !5
  %90 = shl nsw i32 %89, 1
  %91 = icmp eq i32 %29, %90
  %92 = icmp eq i32 %30, %89
  %93 = select i1 %91, i1 true, i1 %92
  %94 = zext i1 %93 to i32
  %95 = add nsw i32 %87, %94
  %96 = add nuw nsw i64 %86, 1
  %97 = icmp eq i64 %96, %22
  br i1 %97, label %98, label %85, !llvm.loop !14

98:                                               ; preds = %85, %78, %23
  %99 = phi i32 [ %36, %23 ], [ %80, %78 ], [ %95, %85 ]
  %100 = add nuw nsw i64 %24, 1
  %101 = icmp eq i64 %100, %22
  br i1 %101, label %102, label %23, !llvm.loop !16

102:                                              ; preds = %98, %17
  %103 = phi i32 [ 0, %17 ], [ %99, %98 ]
  %104 = call nonnull align 8 dereferenceable(8) %"class.std::basic_ostream"* @_ZNSolsEi(%"class.std::basic_ostream"* nonnull align 8 dereferenceable(8) @_ZSt4cout, i32 %103)
  %105 = bitcast %"class.std::basic_ostream"* %104 to i8**
  %106 = load i8*, i8** %105, align 8, !tbaa !17
  %107 = getelementptr i8, i8* %106, i64 -24
  %108 = bitcast i8* %107 to i64*
  %109 = load i64, i64* %108, align 8
  %110 = bitcast %"class.std::basic_ostream"* %104 to i8*
  %111 = add nsw i64 %109, 240
  %112 = getelementptr inbounds i8, i8* %110, i64 %111
  %113 = bitcast i8* %112 to %"class.std::ctype"**
  %114 = load %"class.std::ctype"*, %"class.std::ctype"** %113, align 8, !tbaa !19
  %115 = icmp eq %"class.std::ctype"* %114, null
  br i1 %115, label %116, label %117

116:                                              ; preds = %102
  call void @_ZSt16__throw_bad_castv() #9
  unreachable

117:                                              ; preds = %102
  %118 = getelementptr inbounds %"class.std::ctype", %"class.std::ctype"* %114, i64 0, i32 8
  %119 = load i8, i8* %118, align 8, !tbaa !23
  %120 = icmp eq i8 %119, 0
  br i1 %120, label %124, label %121

121:                                              ; preds = %117
  %122 = getelementptr inbounds %"class.std::ctype", %"class.std::ctype"* %114, i64 0, i32 9, i64 10
  %123 = load i8, i8* %122, align 1, !tbaa !25
  br label %130

124:                                              ; preds = %117
  call void @_ZNKSt5ctypeIcE13_M_widen_initEv(%"class.std::ctype"* nonnull align 8 dereferenceable(570) %114)
  %125 = bitcast %"class.std::ctype"* %114 to i8 (%"class.std::ctype"*, i8)***
  %126 = load i8 (%"class.std::ctype"*, i8)**, i8 (%"class.std::ctype"*, i8)*** %125, align 8, !tbaa !17
  %127 = getelementptr inbounds i8 (%"class.std::ctype"*, i8)*, i8 (%"class.std::ctype"*, i8)** %126, i64 6
  %128 = load i8 (%"class.std::ctype"*, i8)*, i8 (%"class.std::ctype"*, i8)** %127, align 8
  %129 = call signext i8 %128(%"class.std::ctype"* nonnull align 8 dereferenceable(570) %114, i8 signext 10)
  br label %130

130:                                              ; preds = %121, %124
  %131 = phi i8 [ %123, %121 ], [ %129, %124 ]
  %132 = call nonnull align 8 dereferenceable(8) %"class.std::basic_ostream"* @_ZNSo3putEc(%"class.std::basic_ostream"* nonnull align 8 dereferenceable(8) %104, i8 signext %131)
  %133 = call nonnull align 8 dereferenceable(8) %"class.std::basic_ostream"* @_ZNSo5flushEv(%"class.std::basic_ostream"* nonnull align 8 dereferenceable(8) %132)
  br label %15
}

; Function Attrs: argmemonly mustprogress nofree nosync nounwind willreturn
declare void @llvm.lifetime.start.p0i8(i64 immarg, i8* nocapture) #4

declare nonnull align 8 dereferenceable(16) %"class.std::basic_istream"* @_ZNSirsERi(%"class.std::basic_istream"* nonnull align 8 dereferenceable(16), i32* nonnull align 4 dereferenceable(4)) local_unnamed_addr #0

declare nonnull align 8 dereferenceable(8) %"class.std::basic_ostream"* @_ZNSolsEi(%"class.std::basic_ostream"* nonnull align 8 dereferenceable(8), i32) local_unnamed_addr #0

; Function Attrs: argmemonly mustprogress nofree nosync nounwind willreturn
declare void @llvm.lifetime.end.p0i8(i64 immarg, i8* nocapture) #4

declare nonnull align 8 dereferenceable(8) %"class.std::basic_ostream"* @_ZNSo3putEc(%"class.std::basic_ostream"* nonnull align 8 dereferenceable(8), i8 signext) local_unnamed_addr #0

declare nonnull align 8 dereferenceable(8) %"class.std::basic_ostream"* @_ZNSo5flushEv(%"class.std::basic_ostream"* nonnull align 8 dereferenceable(8)) local_unnamed_addr #0

; Function Attrs: noreturn
declare void @_ZSt16__throw_bad_castv() local_unnamed_addr #5

declare void @_ZNKSt5ctypeIcE13_M_widen_initEv(%"class.std::ctype"* nonnull align 8 dereferenceable(570)) local_unnamed_addr #0

; Function Attrs: sspstrong uwtable
define internal void @_GLOBAL__sub_I_1332.cpp() #6 section ".text.startup" {
  tail call void @_ZNSt8ios_base4InitC1Ev(%"class.std::ios_base::Init"* nonnull align 1 dereferenceable(1) @_ZStL8__ioinit)
  %1 = tail call i32 @__cxa_atexit(void (i8*)* bitcast (void (%"class.std::ios_base::Init"*)* @_ZNSt8ios_base4InitD1Ev to void (i8*)*), i8* getelementptr inbounds (%"class.std::ios_base::Init", %"class.std::ios_base::Init"* @_ZStL8__ioinit, i64 0, i32 0), i8* nonnull @__dso_handle) #8
  ret void
}

; Function Attrs: nofree nosync nounwind readnone willreturn
declare i32 @llvm.vector.reduce.add.v4i32(<4 x i32>) #7


!llvm.module.flags = !{!0, !1, !2, !3}
!llvm.ident = !{!4}

!0 = !{i32 1, !"wchar_size", i32 4}
!1 = !{i32 7, !"PIC Level", i32 2}
!2 = !{i32 7, !"PIE Level", i32 2}
!3 = !{i32 7, !"uwtable", i32 1}
!4 = !{!"clang version 13.0.0"}
!5 = !{!6, !6, i64 0}
!6 = !{!"int", !7, i64 0}
!7 = !{!"omnipotent char", !8, i64 0}
!8 = !{!"Simple C++ TBAA"}
!9 = distinct !{!9, !10}
!10 = !{!"llvm.loop.mustprogress"}
!11 = distinct !{!11, !10}
!12 = distinct !{!12, !10, !13}
!13 = !{!"llvm.loop.isvectorized", i32 1}
!14 = distinct !{!14, !10, !15, !13}
!15 = !{!"llvm.loop.unroll.runtime.disable"}
!16 = distinct !{!16, !10}
!17 = !{!18, !18, i64 0}
!18 = !{!"vtable pointer", !8, i64 0}
!19 = !{!20, !21, i64 240}
!20 = !{!"_ZTSSt9basic_iosIcSt11char_traitsIcEE", !21, i64 216, !7, i64 224, !22, i64 225, !21, i64 232, !21, i64 240, !21, i64 248, !21, i64 256}
!21 = !{!"any pointer", !7, i64 0}
!22 = !{!"bool", !7, i64 0}
!23 = !{!24, !7, i64 56}
!24 = !{!"_ZTSSt5ctypeIcE", !21, i64 16, !22, i64 24, !21, i64 32, !21, i64 40, !21, i64 48, !7, i64 56, !7, i64 57, !7, i64 313, !7, i64 569}
!25 = !{!7, !7, i64 0}
